; Function Attrs: uwtable
define internal void @_ZThn16_N3gmx12_GLOBAL__N_113ElectricField12finishOutputEv(ptr nocapture noundef %0) unnamed_addr #6 align 2 {
  %2 = getelementptr inbounds i8, ptr %0, i64 64
  %3 = load ptr, ptr %2, align 8
  %.not.i = icmp eq ptr %3, null
  br i1 %.not.i, label %_ZN3gmx12_GLOBAL__N_113ElectricField12finishOutputEv.exit, label %4

4:                                                ; preds = %1
  %5 = tail call noundef i32 @_Z14gmx_fio_fcloseP8_IO_FILE(ptr noundef nonnull %3)
  store ptr null, ptr %2, align 8
  br label %_ZN3gmx12_GLOBAL__N_113ElectricField12finishOutputEv.exit

_ZN3gmx12_GLOBAL__N_113ElectricField12finishOutputEv.exit: ; preds = %1, %4
  ret void
}